target datalayout = "e-m:e-p270:32:32-p271:32:32-p272:64:64-i64:64-i128:128-f80:128-n8:16:32:64-S128"
target triple = "x86_64-pc-linux-gnu"

%"class.std::__cxx11::basic_string" = type { %"struct.std::__cxx11::basic_string<char>::_Alloc_hider", i64, %union.anon.15 }
%"struct.std::__cxx11::basic_string<char>::_Alloc_hider" = type { ptr }
%union.anon.15 = type { i64, [8 x i8] }
%"class.OpenImageIO::v3_1_0::Filesystem::IOProxy" = type { ptr, %"class.std::__cxx11::basic_string", i64, i32, %"class.std::__cxx11::basic_string" }

; Function Attrs: mustprogress nounwind uwtable
define linkonce_odr noundef i32 @_ZNK11OpenImageIO6v3_1_010Filesystem7IOProxy4modeEv(ptr noundef nonnull align 8 dereferenceable(88) %0) #6 comdat align 2 {
  %2 = alloca ptr, align 8
  store ptr %0, ptr %2, align 8, !tbaa !12
  %3 = load ptr, ptr %2, align 8
  %4 = getelementptr inbounds nuw %"class.OpenImageIO::v3_1_0::Filesystem::IOProxy", ptr %3, i32 0, i32 3
  %5 = load i32, ptr %4, align 8, !tbaa !18
  ret i32 %5
}

; Function Attrs: mustprogress uwtable
define hidden noundef zeroext i1 @_ZNK11OpenImageIO6v3_1_08SgiInput10valid_fileEPNS0_10Filesystem7IOProxyE(ptr noundef nonnull align 8 dereferenceable(376) %0, ptr noundef %1) unnamed_addr #7 align 2 {
  %3 = alloca i1, align 1
  %4 = alloca ptr, align 8
  %5 = alloca ptr, align 8
  %6 = alloca i16, align 2
  %7 = alloca i64, align 8
  store ptr %0, ptr %4, align 8, !tbaa !8
  store ptr %1, ptr %5, align 8, !tbaa !12
  %8 = load ptr, ptr %5, align 8, !tbaa !12
  %9 = icmp ne ptr %8, null
  br i1 %9, label %10, label %14

10:                                               ; preds = %2
  %11 = load ptr, ptr %5, align 8, !tbaa !12
  %12 = call noundef i32 @_ZNK11OpenImageIO6v3_1_010Filesystem7IOProxy4modeEv(ptr noundef nonnull align 8 dereferenceable(88) %11)
  %13 = icmp ne i32 %12, 114
  br i1 %13, label %14, label %15

14:                                               ; preds = %10, %2
  store i1 false, ptr %3, align 1
  br label %29

15:                                               ; preds = %10
  call void @llvm.lifetime.start.p0(i64 2, ptr %6) #3
  store i16 0, ptr %6, align 2, !tbaa !14
  call void @llvm.lifetime.start.p0(i64 8, ptr %7) #3
  %16 = load ptr, ptr %5, align 8, !tbaa !12
  %17 = load ptr, ptr %16, align 8, !tbaa !10
  %18 = getelementptr inbounds ptr, ptr %17, i64 9
  %19 = load ptr, ptr %18, align 8
  %20 = call noundef i64 %19(ptr noundef nonnull align 8 dereferenceable(88) %16, ptr noundef %6, i64 noundef 2, i64 noundef 0)
  store i64 %20, ptr %7, align 8, !tbaa !16
  %21 = load i64, ptr %7, align 8, !tbaa !16
  %22 = icmp eq i64 %21, 2
  br i1 %22, label %23, label %27

23:                                               ; preds = %15
  %24 = load i16, ptr %6, align 2, !tbaa !14
  %25 = sext i16 %24 to i32
  %26 = icmp eq i32 %25, 474
  br label %27

27:                                               ; preds = %23, %15
  %28 = phi i1 [ false, %15 ], [ %26, %23 ]
  store i1 %28, ptr %3, align 1
  call void @llvm.lifetime.end.p0(i64 8, ptr %7) #3
  call void @llvm.lifetime.end.p0(i64 2, ptr %6) #3
  br label %29

29:                                               ; preds = %27, %14
  %30 = load i1, ptr %3, align 1
  ret i1 %30
}