; Function Attrs: mustprogress uwtable
define hidden noundef zeroext i1 @_ZNK11OpenImageIO6v3_1_08SgiInput10valid_fileEPNS0_10Filesystem7IOProxyE(ptr nonnull readnone align 8 captures(none) %0, ptr noundef %1) unnamed_addr #6 align 2 {
  %3 = alloca i16, align 2
  %.not = icmp eq ptr %1, null
  br i1 %.not, label %16, label %4

4:                                                ; preds = %2
  %5 = getelementptr inbounds nuw i8, ptr %1, i64 48
  %6 = load i32, ptr %5, align 8, !tbaa !20
  %.not5 = icmp eq i32 %6, 114
  br i1 %.not5, label %7, label %16

7:                                                ; preds = %4
  call void @llvm.lifetime.start.p0(i64 2, ptr nonnull %3) #25
  store i16 0, ptr %3, align 2, !tbaa !23
  %8 = load ptr, ptr %1, align 8, !tbaa !3
  %9 = getelementptr inbounds nuw i8, ptr %8, i64 72
  %10 = load ptr, ptr %9, align 8
  %11 = call noundef i64 %10(ptr noundef nonnull align 8 dereferenceable(88) %1, ptr noundef nonnull %3, i64 noundef 2, i64 noundef 0)
  %12 = icmp eq i64 %11, 2
  %13 = load i16, ptr %3, align 2
  %14 = icmp eq i16 %13, 474
  %15 = select i1 %12, i1 %14, i1 false
  call void @llvm.lifetime.end.p0(i64 2, ptr nonnull %3) #25
  br label %16

16:                                               ; preds = %2, %4, %7
  %.0 = phi i1 [ %15, %7 ], [ false, %4 ], [ false, %2 ]
  ret i1 %.0
}